target datalayout = "e-m:e-p270:32:32-p271:32:32-p272:64:64-i64:64-i128:128-f80:128-n8:16:32:64-S128"
target triple = "x86_64-pc-linux-gnu"

%struct.JNINativeInterface_ = type { ptr, ptr, ptr, ptr, ptr, ptr, ptr, ptr, ptr, ptr, ptr, ptr, ptr, ptr, ptr, ptr, ptr, ptr, ptr, ptr, ptr, ptr, ptr, ptr, ptr, ptr, ptr, ptr, ptr, ptr, ptr, ptr, ptr, ptr, ptr, ptr, ptr, ptr, ptr, ptr, ptr, ptr, ptr, ptr, ptr, ptr, ptr, ptr, ptr, ptr, ptr, ptr, ptr, ptr, ptr, ptr, ptr, ptr, ptr, ptr, ptr, ptr, ptr, ptr, ptr, ptr, ptr, ptr, ptr, ptr, ptr, ptr, ptr, ptr, ptr, ptr, ptr, ptr, ptr, ptr, ptr, ptr, ptr, ptr, ptr, ptr, ptr, ptr, ptr, ptr, ptr, ptr, ptr, ptr, ptr, ptr, ptr, ptr, ptr, ptr, ptr, ptr, ptr, ptr, ptr, ptr, ptr, ptr, ptr, ptr, ptr, ptr, ptr, ptr, ptr, ptr, ptr, ptr, ptr, ptr, ptr, ptr, ptr, ptr, ptr, ptr, ptr, ptr, ptr, ptr, ptr, ptr, ptr, ptr, ptr, ptr, ptr, ptr, ptr, ptr, ptr, ptr, ptr, ptr, ptr, ptr, ptr, ptr, ptr, ptr, ptr, ptr, ptr, ptr, ptr, ptr, ptr, ptr, ptr, ptr, ptr, ptr, ptr, ptr, ptr, ptr, ptr, ptr, ptr, ptr, ptr, ptr, ptr, ptr, ptr, ptr, ptr, ptr, ptr, ptr, ptr, ptr, ptr, ptr, ptr, ptr, ptr, ptr, ptr, ptr, ptr, ptr, ptr, ptr, ptr, ptr, ptr, ptr, ptr, ptr, ptr, ptr, ptr, ptr, ptr, ptr, ptr, ptr, ptr, ptr, ptr, ptr, ptr, ptr, ptr, ptr, ptr, ptr, ptr, ptr, ptr, ptr, ptr, ptr, ptr, ptr, ptr, ptr, ptr, ptr, ptr, ptr, ptr, ptr, ptr }

@get_xawt_root_shell.classXRootWindow = internal global ptr null, align 8
@get_xawt_root_shell.methodGetXRootWindow = internal global ptr null, align 8
@get_xawt_root_shell.xawt_root_shell = internal global i64 0, align 8
@.str.29 = private unnamed_addr constant [24 x i8] c"sun/awt/X11/XRootWindow\00", align 1
@.str.30 = private unnamed_addr constant [15 x i8] c"getXRootWindow\00", align 1
@.str.31 = private unnamed_addr constant [4 x i8] c"()J\00", align 1

; Function Attrs: nounwind uwtable
define hidden i64 @get_xawt_root_shell(ptr noundef %0) #0 {
  %2 = alloca ptr, align 8
  %3 = alloca ptr, align 8
  store ptr %0, ptr %2, align 8
  %4 = load i64, ptr @get_xawt_root_shell.xawt_root_shell, align 8
  %5 = icmp eq i64 %4, 0
  br i1 %5, label %6, label %79

6:                                                ; preds = %1
  %7 = load ptr, ptr @get_xawt_root_shell.classXRootWindow, align 8
  %8 = icmp eq ptr %7, null
  br i1 %8, label %9, label %33

9:                                                ; preds = %6
  %10 = load ptr, ptr %2, align 8
  %11 = load ptr, ptr %10, align 8
  %12 = getelementptr inbounds %struct.JNINativeInterface_, ptr %11, i32 0, i32 6
  %13 = load ptr, ptr %12, align 8
  %14 = load ptr, ptr %2, align 8
  %15 = call ptr %13(ptr noundef %14, ptr noundef @.str.29)
  store ptr %15, ptr %3, align 8
  %16 = load ptr, ptr %3, align 8
  %17 = icmp eq ptr %16, null
  br i1 %17, label %32, label %18

18:                                               ; preds = %9
  %19 = load ptr, ptr %2, align 8
  %20 = load ptr, ptr %19, align 8
  %21 = getelementptr inbounds %struct.JNINativeInterface_, ptr %20, i32 0, i32 21
  %22 = load ptr, ptr %21, align 8
  %23 = load ptr, ptr %2, align 8
  %24 = load ptr, ptr %3, align 8
  %25 = call ptr %22(ptr noundef %23, ptr noundef %24)
  store ptr %25, ptr @get_xawt_root_shell.classXRootWindow, align 8
  %26 = load ptr, ptr %2, align 8
  %27 = load ptr, ptr %26, align 8
  %28 = getelementptr inbounds %struct.JNINativeInterface_, ptr %27, i32 0, i32 23
  %29 = load ptr, ptr %28, align 8
  %30 = load ptr, ptr %2, align 8
  %31 = load ptr, ptr %3, align 8
  call void %29(ptr noundef %30, ptr noundef %31)
  br label %32

32:                                               ; preds = %18, %9
  br label %33

33:                                               ; preds = %32, %6
  %34 = load ptr, ptr @get_xawt_root_shell.classXRootWindow, align 8
  %35 = icmp ne ptr %34, null
  br i1 %35, label %36, label %44

36:                                               ; preds = %33
  %37 = load ptr, ptr %2, align 8
  %38 = load ptr, ptr %37, align 8
  %39 = getelementptr inbounds %struct.JNINativeInterface_, ptr %38, i32 0, i32 113
  %40 = load ptr, ptr %39, align 8
  %41 = load ptr, ptr %2, align 8
  %42 = load ptr, ptr @get_xawt_root_shell.classXRootWindow, align 8
  %43 = call ptr %40(ptr noundef %41, ptr noundef %42, ptr noundef @.str.30, ptr noundef @.str.31)
  store ptr %43, ptr @get_xawt_root_shell.methodGetXRootWindow, align 8
  br label %44

44:                                               ; preds = %36, %33
  %45 = load ptr, ptr @get_xawt_root_shell.classXRootWindow, align 8
  %46 = icmp ne ptr %45, null
  br i1 %46, label %47, label %59

47:                                               ; preds = %44
  %48 = load ptr, ptr @get_xawt_root_shell.methodGetXRootWindow, align 8
  %49 = icmp ne ptr %48, null
  br i1 %49, label %50, label %59

50:                                               ; preds = %47
  %51 = load ptr, ptr %2, align 8
  %52 = load ptr, ptr %51, align 8
  %53 = getelementptr inbounds %struct.JNINativeInterface_, ptr %52, i32 0, i32 132
  %54 = load ptr, ptr %53, align 8
  %55 = load ptr, ptr %2, align 8
  %56 = load ptr, ptr @get_xawt_root_shell.classXRootWindow, align 8
  %57 = load ptr, ptr @get_xawt_root_shell.methodGetXRootWindow, align 8
  %58 = call i64 (ptr, ptr, ptr, ...) %54(ptr noundef %55, ptr noundef %56, ptr noundef %57)
  store i64 %58, ptr @get_xawt_root_shell.xawt_root_shell, align 8
  br label %59

59:                                               ; preds = %50, %47, %44
  %60 = load ptr, ptr %2, align 8
  %61 = load ptr, ptr %60, align 8
  %62 = getelementptr inbounds %struct.JNINativeInterface_, ptr %61, i32 0, i32 228
  %63 = load ptr, ptr %62, align 8
  %64 = load ptr, ptr %2, align 8
  %65 = call zeroext i8 %63(ptr noundef %64)
  %66 = icmp ne i8 %65, 0
  br i1 %66, label %67, label %78

67:                                               ; preds = %59
  %68 = load ptr, ptr %2, align 8
  %69 = load ptr, ptr %68, align 8
  %70 = getelementptr inbounds %struct.JNINativeInterface_, ptr %69, i32 0, i32 16
  %71 = load ptr, ptr %70, align 8
  %72 = load ptr, ptr %2, align 8
  call void %71(ptr noundef %72)
  %73 = load ptr, ptr %2, align 8
  %74 = load ptr, ptr %73, align 8
  %75 = getelementptr inbounds %struct.JNINativeInterface_, ptr %74, i32 0, i32 17
  %76 = load ptr, ptr %75, align 8
  %77 = load ptr, ptr %2, align 8
  call void %76(ptr noundef %77)
  br label %78

78:                                               ; preds = %67, %59
  br label %79

79:                                               ; preds = %78, %1
  %80 = load i64, ptr @get_xawt_root_shell.xawt_root_shell, align 8
  ret i64 %80
}