; Function Attrs: nounwind uwtable
define hidden i64 @get_xawt_root_shell(ptr noundef %0) local_unnamed_addr #0 {
  %2 = load i64, ptr @get_xawt_root_shell.xawt_root_shell, align 8
  %3 = icmp eq i64 %2, 0
  br i1 %3, label %4, label %46

4:                                                ; preds = %1
  %5 = load ptr, ptr @get_xawt_root_shell.classXRootWindow, align 8
  %6 = icmp eq ptr %5, null
  br i1 %6, label %7, label %22

7:                                                ; preds = %4
  %8 = load ptr, ptr %0, align 8
  %9 = getelementptr inbounds i8, ptr %8, i64 48
  %10 = load ptr, ptr %9, align 8
  %11 = tail call ptr %10(ptr noundef nonnull %0, ptr noundef nonnull @.str.29) #13
  %12 = icmp eq ptr %11, null
  br i1 %12, label %21, label %13

13:                                               ; preds = %7
  %14 = load ptr, ptr %0, align 8
  %15 = getelementptr inbounds i8, ptr %14, i64 168
  %16 = load ptr, ptr %15, align 8
  %17 = tail call ptr %16(ptr noundef nonnull %0, ptr noundef nonnull %11) #13
  store ptr %17, ptr @get_xawt_root_shell.classXRootWindow, align 8
  %18 = load ptr, ptr %0, align 8
  %19 = getelementptr inbounds i8, ptr %18, i64 184
  %20 = load ptr, ptr %19, align 8
  tail call void %20(ptr noundef nonnull %0, ptr noundef nonnull %11) #13
  br label %21

21:                                               ; preds = %7, %13
  %.pr = load ptr, ptr @get_xawt_root_shell.classXRootWindow, align 8
  %.not = icmp eq ptr %.pr, null
  br i1 %.not, label %.thread26, label %22

22:                                               ; preds = %21, %4
  %23 = phi ptr [ %.pr, %21 ], [ %5, %4 ]
  %24 = load ptr, ptr %0, align 8
  %25 = getelementptr inbounds i8, ptr %24, i64 904
  %26 = load ptr, ptr %25, align 8
  %27 = tail call ptr %26(ptr noundef nonnull %0, ptr noundef nonnull %23, ptr noundef nonnull @.str.30, ptr noundef nonnull @.str.31) #13
  store ptr %27, ptr @get_xawt_root_shell.methodGetXRootWindow, align 8
  %.pre = load ptr, ptr @get_xawt_root_shell.classXRootWindow, align 8
  %28 = icmp ne ptr %.pre, null
  %29 = icmp ne ptr %27, null
  %or.cond = select i1 %28, i1 %29, i1 false
  br i1 %or.cond, label %30, label %.thread26

30:                                               ; preds = %22
  %31 = load ptr, ptr %0, align 8
  %32 = getelementptr inbounds i8, ptr %31, i64 1056
  %33 = load ptr, ptr %32, align 8
  %34 = tail call i64 (ptr, ptr, ptr, ...) %33(ptr noundef nonnull %0, ptr noundef nonnull %.pre, ptr noundef nonnull %27) #13
  store i64 %34, ptr @get_xawt_root_shell.xawt_root_shell, align 8
  br label %.thread26

.thread26:                                        ; preds = %21, %30, %22
  %35 = load ptr, ptr %0, align 8
  %36 = getelementptr inbounds i8, ptr %35, i64 1824
  %37 = load ptr, ptr %36, align 8
  %38 = tail call zeroext i8 %37(ptr noundef nonnull %0) #13
  %.not23 = icmp eq i8 %38, 0
  br i1 %.not23, label %46, label %39

39:                                               ; preds = %.thread26
  %40 = load ptr, ptr %0, align 8
  %41 = getelementptr inbounds i8, ptr %40, i64 128
  %42 = load ptr, ptr %41, align 8
  tail call void %42(ptr noundef nonnull %0) #13
  %43 = load ptr, ptr %0, align 8
  %44 = getelementptr inbounds i8, ptr %43, i64 136
  %45 = load ptr, ptr %44, align 8
  tail call void %45(ptr noundef nonnull %0) #13
  br label %46

46:                                               ; preds = %.thread26, %39, %1
  %47 = load i64, ptr @get_xawt_root_shell.xawt_root_shell, align 8
  ret i64 %47
}